; Function Attrs: mustprogress uwtable
define void @_ZN6casadi6MXNode7set_depERKNS_2MXES3_S3_(ptr noundef nonnull align 8 dereferenceable(64) %0, ptr noundef nonnull align 8 dereferenceable(8) %1, ptr noundef nonnull align 8 dereferenceable(8) %2, ptr noundef nonnull align 8 dereferenceable(8) %3) local_unnamed_addr #3 align 2 personality ptr @__gxx_personality_v0 {
  %5 = getelementptr inbounds i8, ptr %0, i64 32
  %6 = getelementptr inbounds i8, ptr %0, i64 40
  %7 = load ptr, ptr %6, align 8
  %8 = load ptr, ptr %5, align 8
  %9 = ptrtoint ptr %7 to i64
  %10 = ptrtoint ptr %8 to i64
  %11 = sub i64 %9, %10
  %12 = ashr exact i64 %11, 3
  %13 = icmp ult i64 %12, 3
  br i1 %13, label %14, label %16

14:                                               ; preds = %4
  %15 = xor i64 %12, 3
  tail call void @_ZNSt6vectorIN6casadi2MXESaIS1_EE17_M_default_appendEm(ptr noundef nonnull align 8 dereferenceable(24) %5, i64 noundef %15)
  br label %_ZNSt6vectorIN6casadi2MXESaIS1_EE6resizeEm.exit

16:                                               ; preds = %4
  %.not = icmp eq i64 %11, 24
  br i1 %.not, label %_ZNSt6vectorIN6casadi2MXESaIS1_EE6resizeEm.exit, label %17

17:                                               ; preds = %16
  %18 = getelementptr inbounds i8, ptr %8, i64 24
  %.not.i.i = icmp eq ptr %7, %18
  br i1 %.not.i.i, label %_ZNSt6vectorIN6casadi2MXESaIS1_EE6resizeEm.exit, label %.lr.ph.i.i.i.i.i

.lr.ph.i.i.i.i.i:                                 ; preds = %17, %.lr.ph.i.i.i.i.i
  %.05.i.i.i.i.i = phi ptr [ %19, %.lr.ph.i.i.i.i.i ], [ %18, %17 ]
  tail call void @_ZN6casadi2MXD1Ev(ptr noundef nonnull align 8 dereferenceable(8) %.05.i.i.i.i.i) #31
  %19 = getelementptr inbounds i8, ptr %.05.i.i.i.i.i, i64 8
  %.not.i.i.i.i.i = icmp eq ptr %19, %7
  br i1 %.not.i.i.i.i.i, label %_ZSt8_DestroyIPN6casadi2MXES1_EvT_S3_RSaIT0_E.exit.i.i, label %.lr.ph.i.i.i.i.i, !llvm.loop !4

_ZSt8_DestroyIPN6casadi2MXES1_EvT_S3_RSaIT0_E.exit.i.i: ; preds = %.lr.ph.i.i.i.i.i
  store ptr %18, ptr %6, align 8
  br label %_ZNSt6vectorIN6casadi2MXESaIS1_EE6resizeEm.exit

_ZNSt6vectorIN6casadi2MXESaIS1_EE6resizeEm.exit:  ; preds = %14, %16, %17, %_ZSt8_DestroyIPN6casadi2MXES1_EvT_S3_RSaIT0_E.exit.i.i
  %20 = load ptr, ptr %5, align 8
  %21 = tail call noundef nonnull align 8 dereferenceable(8) ptr @_ZN6casadi12SharedObjectaSERKS0_(ptr noundef nonnull align 8 dereferenceable(8) %20, ptr noundef nonnull align 8 dereferenceable(8) %1)
  %22 = load ptr, ptr %5, align 8
  %23 = getelementptr inbounds i8, ptr %22, i64 8
  %24 = tail call noundef nonnull align 8 dereferenceable(8) ptr @_ZN6casadi12SharedObjectaSERKS0_(ptr noundef nonnull align 8 dereferenceable(8) %23, ptr noundef nonnull align 8 dereferenceable(8) %2)
  %25 = load ptr, ptr %5, align 8
  %26 = getelementptr inbounds i8, ptr %25, i64 16
  %27 = tail call noundef nonnull align 8 dereferenceable(8) ptr @_ZN6casadi12SharedObjectaSERKS0_(ptr noundef nonnull align 8 dereferenceable(8) %26, ptr noundef nonnull align 8 dereferenceable(8) %3)
  ret void
}